target datalayout = "e-m:e-p270:32:32-p271:32:32-p272:64:64-i64:64-i128:128-f80:128-n8:16:32:64-S128"
target triple = "x86_64-pc-linux-gnu"

%struct.StreamSpecifier = type { i32, i32, i64, i32, i8, i8, i32, ptr, ptr, ptr }

; Function Attrs: nounwind uwtable
define void @stream_specifier_uninit(ptr noundef %0) #0 {
  %2 = alloca ptr, align 8
  store ptr %0, ptr %2, align 8, !tbaa !119
  %3 = load ptr, ptr %2, align 8, !tbaa !119
  %4 = getelementptr inbounds nuw %struct.StreamSpecifier, ptr %3, i32 0, i32 7
  call void @av_freep(ptr noundef %4)
  %5 = load ptr, ptr %2, align 8, !tbaa !119
  %6 = getelementptr inbounds nuw %struct.StreamSpecifier, ptr %5, i32 0, i32 8
  call void @av_freep(ptr noundef %6)
  %7 = load ptr, ptr %2, align 8, !tbaa !119
  %8 = getelementptr inbounds nuw %struct.StreamSpecifier, ptr %7, i32 0, i32 9
  call void @av_freep(ptr noundef %8)
  %9 = load ptr, ptr %2, align 8, !tbaa !119
  call void @llvm.memset.p0.i64(ptr align 8 %9, i8 0, i64 56, i1 false)
  ret void
}

; Function Attrs: nounwind uwtable
define i32 @check_stream_specifier(ptr noundef %0, ptr noundef %1, ptr noundef %2) #0 {
  %4 = alloca i32, align 4
  %5 = alloca ptr, align 8
  %6 = alloca ptr, align 8
  %7 = alloca ptr, align 8
  %8 = alloca %struct.StreamSpecifier, align 8
  %9 = alloca i32, align 4
  %10 = alloca i32, align 4
  store ptr %0, ptr %5, align 8, !tbaa !133
  store ptr %1, ptr %6, align 8, !tbaa !135
  store ptr %2, ptr %7, align 8, !tbaa !10
  call void @llvm.lifetime.start.p0(i64 56, ptr %8) #11
  call void @llvm.lifetime.start.p0(i64 4, ptr %9) #11
  %11 = load ptr, ptr %7, align 8, !tbaa !10
  %12 = call i32 @stream_specifier_parse(ptr noundef %8, ptr noundef %11, i32 noundef 0, ptr noundef null)
  store i32 %12, ptr %9, align 4, !tbaa !8
  %13 = load i32, ptr %9, align 4, !tbaa !8
  %14 = icmp slt i32 %13, 0
  br i1 %14, label %15, label %17

15:                                               ; preds = %3
  %16 = load i32, ptr %9, align 4, !tbaa !8
  store i32 %16, ptr %4, align 4
  store i32 1, ptr %10, align 4
  br label %22

17:                                               ; preds = %3
  %18 = load ptr, ptr %5, align 8, !tbaa !133
  %19 = load ptr, ptr %6, align 8, !tbaa !135
  %20 = call i32 @stream_specifier_match(ptr noundef %8, ptr noundef %18, ptr noundef %19, ptr noundef null)
  store i32 %20, ptr %9, align 4, !tbaa !8
  call void @stream_specifier_uninit(ptr noundef %8)
  %21 = load i32, ptr %9, align 4, !tbaa !8
  store i32 %21, ptr %4, align 4
  store i32 1, ptr %10, align 4
  br label %22

22:                                               ; preds = %17, %15
  call void @llvm.lifetime.end.p0(i64 4, ptr %9) #11
  call void @llvm.lifetime.end.p0(i64 56, ptr %8) #11
  %23 = load i32, ptr %4, align 4
  ret i32 %23
}