; Function Attrs: nounwind uwtable
define range(i32 -2147483648, 2) i32 @check_stream_specifier(ptr noundef readonly captures(none) %0, ptr noundef readonly captures(address) %1, ptr noundef %2) local_unnamed_addr #0 {
  %4 = alloca %struct.StreamSpecifier, align 8
  call void @llvm.lifetime.start.p0(i64 56, ptr nonnull %4) #15
  %5 = call i32 @stream_specifier_parse(ptr noundef nonnull %4, ptr noundef %2, i32 noundef 0, ptr noundef null)
  %6 = icmp slt i32 %5, 0
  br i1 %6, label %12, label %7

7:                                                ; preds = %3
  %8 = call i32 @stream_specifier_match(ptr noundef nonnull %4, ptr noundef %0, ptr noundef %1, ptr noundef null)
  %9 = getelementptr inbounds nuw i8, ptr %4, i64 32
  call void @av_freep(ptr noundef nonnull %9) #15
  %10 = getelementptr inbounds nuw i8, ptr %4, i64 40
  call void @av_freep(ptr noundef nonnull %10) #15
  %11 = getelementptr inbounds nuw i8, ptr %4, i64 48
  call void @av_freep(ptr noundef nonnull %11) #15
  br label %12

12:                                               ; preds = %3, %7
  %.0 = phi i32 [ %8, %7 ], [ %5, %3 ]
  call void @llvm.lifetime.end.p0(i64 56, ptr nonnull %4) #15
  ret i32 %.0
}